; Function Attrs: mustprogress uwtable
define dso_local void @_ZN4enki13TaskScheduler21WaitforAllAndShutdownEv(ptr noundef nonnull align 8 dereferenceable(220) %0) local_unnamed_addr #0 align 2 {
  %2 = getelementptr inbounds nuw i8, ptr %0, i64 74
  store atomic i8 1, ptr %2 release, align 2
  %3 = getelementptr inbounds nuw i8, ptr %0, i64 73
  store atomic i8 1, ptr %3 release, align 1
  %4 = getelementptr inbounds nuw i8, ptr %0, i64 116
  %5 = load i8, ptr %4, align 4, !tbaa !79, !range !80, !noundef !81
  %6 = trunc nuw i8 %5 to i1
  br i1 %6, label %7, label %8

7:                                                ; preds = %1
  tail call void @_ZN4enki13TaskScheduler10WaitforAllEv(ptr noundef nonnull align 8 dereferenceable(220) %0)
  tail call void @_ZN4enki13TaskScheduler11StopThreadsEb(ptr noundef nonnull align 8 dereferenceable(220) %0, i1 noundef zeroext true)
  br label %8

8:                                                ; preds = %7, %1
  ret void
}